target datalayout = "e-m:e-p270:32:32-p271:32:32-p272:64:64-i64:64-i128:128-f80:128-n8:16:32:64-S128"
target triple = "x86_64-pc-linux-gnu"

%struct.stat = type { i64, i64, i64, i32, i32, i32, i32, i64, i64, i64, i64, %struct.timespec, %struct.timespec, %struct.timespec, [3 x i64] }
%struct.timespec = type { i64, i64 }

; Function Attrs: nounwind uwtable
define internal ptr @readfile(ptr noundef %0, ptr noundef %1) #0 {
  %3 = alloca ptr, align 8
  %4 = alloca ptr, align 8
  %5 = alloca ptr, align 8
  %6 = alloca i32, align 4
  %7 = alloca i32, align 4
  %8 = alloca ptr, align 8
  %9 = alloca ptr, align 8
  %10 = alloca ptr, align 8
  %11 = alloca i32, align 4
  %12 = alloca i32, align 4
  %13 = alloca i32, align 4
  %14 = alloca %struct.stat, align 8
  %15 = alloca i32, align 4
  %16 = alloca i32, align 4
  %17 = alloca ptr, align 8
  store ptr %0, ptr %4, align 8
  store ptr %1, ptr %5, align 8
  call void @llvm.lifetime.start.p0(i64 4, ptr %6) #10
  call void @llvm.lifetime.start.p0(i64 4, ptr %7) #10
  call void @llvm.lifetime.start.p0(i64 8, ptr %8) #10
  call void @llvm.lifetime.start.p0(i64 8, ptr %9) #10
  call void @llvm.lifetime.start.p0(i64 8, ptr %10) #10
  call void @llvm.lifetime.start.p0(i64 4, ptr %11) #10
  call void @llvm.lifetime.start.p0(i64 4, ptr %12) #10
  call void @llvm.lifetime.start.p0(i64 4, ptr %13) #10
  call void @llvm.lifetime.start.p0(i64 144, ptr %14) #10
  %18 = load ptr, ptr %5, align 8
  store i32 0, ptr %18, align 4
  %19 = load ptr, ptr %4, align 8
  %20 = call i32 (ptr, i32, ...) @open(ptr noundef %19, i32 noundef 0, i32 noundef 0)
  store i32 %20, ptr %6, align 4
  %21 = load i32, ptr %6, align 4
  %22 = icmp slt i32 %21, 0
  br i1 %22, label %23, label %24

23:                                               ; preds = %2
  store ptr null, ptr %3, align 8
  store i32 1, ptr %15, align 4
  br label %162

24:                                               ; preds = %2
  %25 = load i32, ptr %6, align 4
  %26 = call i32 @fstat(i32 noundef %25, ptr noundef %14) #10
  %27 = icmp slt i32 %26, 0
  br i1 %27, label %28, label %31

28:                                               ; preds = %24
  %29 = load i32, ptr %6, align 4
  %30 = call i32 @close(i32 noundef %29)
  store ptr null, ptr %3, align 8
  store i32 1, ptr %15, align 4
  br label %162

31:                                               ; preds = %24
  %32 = getelementptr inbounds nuw %struct.stat, ptr %14, i32 0, i32 8
  %33 = load i64, ptr %32, align 8
  %34 = icmp eq i64 %33, 0
  br i1 %34, label %35, label %41

35:                                               ; preds = %31
  %36 = load i32, ptr %6, align 4
  %37 = call i32 @close(i32 noundef %36)
  %38 = call ptr @pg_malloc(i64 noundef 8)
  store ptr %38, ptr %8, align 8
  %39 = load ptr, ptr %8, align 8
  store ptr null, ptr %39, align 8
  %40 = load ptr, ptr %8, align 8
  store ptr %40, ptr %3, align 8
  store i32 1, ptr %15, align 4
  br label %162

41:                                               ; preds = %31
  %42 = getelementptr inbounds nuw %struct.stat, ptr %14, i32 0, i32 8
  %43 = load i64, ptr %42, align 8
  %44 = add i64 %43, 1
  %45 = call ptr @pg_malloc(i64 noundef %44)
  store ptr %45, ptr %9, align 8
  %46 = load i32, ptr %6, align 4
  %47 = load ptr, ptr %9, align 8
  %48 = getelementptr inbounds nuw %struct.stat, ptr %14, i32 0, i32 8
  %49 = load i64, ptr %48, align 8
  %50 = add i64 %49, 1
  %51 = call i64 @read(i32 noundef %46, ptr noundef %47, i64 noundef %50)
  %52 = trunc i64 %51 to i32
  store i32 %52, ptr %13, align 4
  %53 = load i32, ptr %6, align 4
  %54 = call i32 @close(i32 noundef %53)
  %55 = load i32, ptr %13, align 4
  %56 = sext i32 %55 to i64
  %57 = getelementptr inbounds nuw %struct.stat, ptr %14, i32 0, i32 8
  %58 = load i64, ptr %57, align 8
  %59 = icmp ne i64 %56, %58
  br i1 %59, label %60, label %62

60:                                               ; preds = %41
  %61 = load ptr, ptr %9, align 8
  call void @free(ptr noundef %61) #10
  store ptr null, ptr %3, align 8
  store i32 1, ptr %15, align 4
  br label %162

62:                                               ; preds = %41
  store i32 0, ptr %7, align 4
  store i32 0, ptr %11, align 4
  br label %63

63:                                               ; preds = %79, %62
  %64 = load i32, ptr %11, align 4
  %65 = load i32, ptr %13, align 4
  %66 = icmp slt i32 %64, %65
  br i1 %66, label %67, label %82

67:                                               ; preds = %63
  %68 = load ptr, ptr %9, align 8
  %69 = load i32, ptr %11, align 4
  %70 = sext i32 %69 to i64
  %71 = getelementptr inbounds i8, ptr %68, i64 %70
  %72 = load i8, ptr %71, align 1
  %73 = sext i8 %72 to i32
  %74 = icmp eq i32 %73, 10
  br i1 %74, label %75, label %78

75:                                               ; preds = %67
  %76 = load i32, ptr %7, align 4
  %77 = add i32 %76, 1
  store i32 %77, ptr %7, align 4
  br label %78

78:                                               ; preds = %75, %67
  br label %79

79:                                               ; preds = %78
  %80 = load i32, ptr %11, align 4
  %81 = add i32 %80, 1
  store i32 %81, ptr %11, align 4
  br label %63, !llvm.loop !9

82:                                               ; preds = %63
  %83 = load i32, ptr %7, align 4
  %84 = add i32 %83, 1
  %85 = sext i32 %84 to i64
  %86 = mul i64 %85, 8
  %87 = call ptr @pg_malloc(i64 noundef %86)
  store ptr %87, ptr %8, align 8
  %88 = load i32, ptr %7, align 4
  %89 = load ptr, ptr %5, align 8
  store i32 %88, ptr %89, align 4
  %90 = load ptr, ptr %9, align 8
  store ptr %90, ptr %10, align 8
  store i32 0, ptr %12, align 4
  store i32 0, ptr %11, align 4
  br label %91

91:                                               ; preds = %152, %82
  %92 = load i32, ptr %11, align 4
  %93 = load i32, ptr %13, align 4
  %94 = icmp slt i32 %92, %93
  br i1 %94, label %95, label %155

95:                                               ; preds = %91
  %96 = load ptr, ptr %9, align 8
  %97 = load i32, ptr %11, align 4
  %98 = sext i32 %97 to i64
  %99 = getelementptr inbounds i8, ptr %96, i64 %98
  %100 = load i8, ptr %99, align 1
  %101 = sext i8 %100 to i32
  %102 = icmp eq i32 %101, 10
  br i1 %102, label %103, label %151

103:                                              ; preds = %95
  call void @llvm.lifetime.start.p0(i64 4, ptr %16) #10
  %104 = load ptr, ptr %9, align 8
  %105 = load i32, ptr %11, align 4
  %106 = sext i32 %105 to i64
  %107 = getelementptr inbounds i8, ptr %104, i64 %106
  %108 = load ptr, ptr %10, align 8
  %109 = ptrtoint ptr %107 to i64
  %110 = ptrtoint ptr %108 to i64
  %111 = sub i64 %109, %110
  %112 = trunc i64 %111 to i32
  store i32 %112, ptr %16, align 4
  call void @llvm.lifetime.start.p0(i64 8, ptr %17) #10
  %113 = load i32, ptr %16, align 4
  %114 = add i32 %113, 1
  %115 = sext i32 %114 to i64
  %116 = call ptr @pg_malloc(i64 noundef %115)
  store ptr %116, ptr %17, align 8
  %117 = load ptr, ptr %17, align 8
  %118 = load ptr, ptr %10, align 8
  %119 = load i32, ptr %16, align 4
  %120 = sext i32 %119 to i64
  call void @llvm.memcpy.p0.p0.i64(ptr align 1 %117, ptr align 1 %118, i64 %120, i1 false)
  %121 = load i32, ptr %16, align 4
  %122 = icmp sgt i32 %121, 0
  br i1 %122, label %123, label %135

123:                                              ; preds = %103
  %124 = load ptr, ptr %17, align 8
  %125 = load i32, ptr %16, align 4
  %126 = sub i32 %125, 1
  %127 = sext i32 %126 to i64
  %128 = getelementptr inbounds i8, ptr %124, i64 %127
  %129 = load i8, ptr %128, align 1
  %130 = sext i8 %129 to i32
  %131 = icmp eq i32 %130, 13
  br i1 %131, label %132, label %135

132:                                              ; preds = %123
  %133 = load i32, ptr %16, align 4
  %134 = add i32 %133, -1
  store i32 %134, ptr %16, align 4
  br label %135

135:                                              ; preds = %132, %123, %103
  %136 = load ptr, ptr %17, align 8
  %137 = load i32, ptr %16, align 4
  %138 = sext i32 %137 to i64
  %139 = getelementptr inbounds i8, ptr %136, i64 %138
  store i8 0, ptr %139, align 1
  %140 = load ptr, ptr %17, align 8
  %141 = load ptr, ptr %8, align 8
  %142 = load i32, ptr %12, align 4
  %143 = add i32 %142, 1
  store i32 %143, ptr %12, align 4
  %144 = sext i32 %142 to i64
  %145 = getelementptr inbounds ptr, ptr %141, i64 %144
  store ptr %140, ptr %145, align 8
  %146 = load ptr, ptr %9, align 8
  %147 = load i32, ptr %11, align 4
  %148 = add i32 %147, 1
  %149 = sext i32 %148 to i64
  %150 = getelementptr inbounds i8, ptr %146, i64 %149
  store ptr %150, ptr %10, align 8
  call void @llvm.lifetime.end.p0(i64 8, ptr %17) #10
  call void @llvm.lifetime.end.p0(i64 4, ptr %16) #10
  br label %151

151:                                              ; preds = %135, %95
  br label %152

152:                                              ; preds = %151
  %153 = load i32, ptr %11, align 4
  %154 = add i32 %153, 1
  store i32 %154, ptr %11, align 4
  br label %91, !llvm.loop !10

155:                                              ; preds = %91
  %156 = load ptr, ptr %8, align 8
  %157 = load i32, ptr %12, align 4
  %158 = sext i32 %157 to i64
  %159 = getelementptr inbounds ptr, ptr %156, i64 %158
  store ptr null, ptr %159, align 8
  %160 = load ptr, ptr %9, align 8
  call void @free(ptr noundef %160) #10
  %161 = load ptr, ptr %8, align 8
  store ptr %161, ptr %3, align 8
  store i32 1, ptr %15, align 4
  br label %162

162:                                              ; preds = %155, %60, %35, %28, %23
  call void @llvm.lifetime.end.p0(i64 144, ptr %14) #10
  call void @llvm.lifetime.end.p0(i64 4, ptr %13) #10
  call void @llvm.lifetime.end.p0(i64 4, ptr %12) #10
  call void @llvm.lifetime.end.p0(i64 4, ptr %11) #10
  call void @llvm.lifetime.end.p0(i64 8, ptr %10) #10
  call void @llvm.lifetime.end.p0(i64 8, ptr %9) #10
  call void @llvm.lifetime.end.p0(i64 8, ptr %8) #10
  call void @llvm.lifetime.end.p0(i64 4, ptr %7) #10
  call void @llvm.lifetime.end.p0(i64 4, ptr %6) #10
  %163 = load ptr, ptr %3, align 8
  ret ptr %163
}