; Function Attrs: nounwind uwtable
define internal fastcc ptr @readfile(ptr noundef readonly captures(none) %0, ptr noundef nonnull writeonly captures(none) initializes((0, 4)) %1) unnamed_addr #5 {
  %3 = alloca %struct.stat, align 8
  call void @llvm.lifetime.start.p0(i64 144, ptr nonnull %3) #17
  store i32 0, ptr %1, align 4
  %4 = tail call i32 (ptr, i32, ...) @open(ptr noundef %0, i32 noundef 0, i32 noundef 0) #17
  %5 = icmp slt i32 %4, 0
  br i1 %5, label %63, label %6

6:                                                ; preds = %2
  %7 = call i32 @fstat(i32 noundef %4, ptr noundef nonnull %3) #17
  %8 = icmp slt i32 %7, 0
  br i1 %8, label %9, label %11

9:                                                ; preds = %6
  %10 = tail call i32 @close(i32 noundef %4) #17
  br label %63

11:                                               ; preds = %6
  %12 = getelementptr inbounds nuw i8, ptr %3, i64 48
  %13 = load i64, ptr %12, align 8
  %14 = icmp eq i64 %13, 0
  br i1 %14, label %15, label %18

15:                                               ; preds = %11
  %16 = tail call i32 @close(i32 noundef %4) #17
  %17 = tail call ptr @pg_malloc(i64 noundef 8) #17
  store ptr null, ptr %17, align 8
  br label %63

18:                                               ; preds = %11
  %19 = add i64 %13, 1
  %20 = tail call ptr @pg_malloc(i64 noundef %19) #17
  %21 = tail call i64 @read(i32 noundef %4, ptr noundef %20, i64 noundef %19) #17
  %22 = tail call i32 @close(i32 noundef %4) #17
  %sext = shl i64 %21, 32
  %23 = ashr exact i64 %sext, 32
  %.not = icmp eq i64 %23, %13
  br i1 %.not, label %.preheader, label %26

.preheader:                                       ; preds = %18
  %24 = trunc i64 %21 to i32
  %25 = icmp sgt i32 %24, 0
  br i1 %25, label %.lr.ph.preheader, label %._crit_edge

.lr.ph.preheader:                                 ; preds = %.preheader
  %wide.trip.count = and i64 %21, 2147483647
  br label %.lr.ph

26:                                               ; preds = %18
  tail call void @free(ptr noundef %20) #17
  br label %63

.lr.ph:                                           ; preds = %.lr.ph.preheader, %.lr.ph
  %indvars.iv = phi i64 [ 0, %.lr.ph.preheader ], [ %indvars.iv.next, %.lr.ph ]
  %.05168 = phi i32 [ 0, %.lr.ph.preheader ], [ %spec.select, %.lr.ph ]
  %27 = getelementptr inbounds nuw i8, ptr %20, i64 %indvars.iv
  %28 = load i8, ptr %27, align 1
  %29 = icmp eq i8 %28, 10
  %30 = zext i1 %29 to i32
  %spec.select = add i32 %.05168, %30
  %indvars.iv.next = add nuw nsw i64 %indvars.iv, 1
  %exitcond.not = icmp eq i64 %indvars.iv.next, %wide.trip.count
  br i1 %exitcond.not, label %._crit_edge, label %.lr.ph, !llvm.loop !12

._crit_edge:                                      ; preds = %.lr.ph, %.preheader
  %.051.lcssa = phi i32 [ 0, %.preheader ], [ %spec.select, %.lr.ph ]
  %31 = add i32 %.051.lcssa, 1
  %32 = sext i32 %31 to i64
  %33 = shl nsw i64 %32, 3
  %34 = tail call ptr @pg_malloc(i64 noundef %33) #17
  store i32 %.051.lcssa, ptr %1, align 4
  %invariant.gep = getelementptr inbounds nuw i8, ptr %20, i64 1
  br i1 %25, label %.lr.ph73.preheader, label %._crit_edge74

.lr.ph73.preheader:                               ; preds = %._crit_edge
  %wide.trip.count80 = and i64 %21, 2147483647
  br label %.lr.ph73

.lr.ph73:                                         ; preds = %.lr.ph73.preheader, %60
  %indvars.iv77 = phi i64 [ 0, %.lr.ph73.preheader ], [ %indvars.iv.next78, %60 ]
  %.05271 = phi i32 [ 0, %.lr.ph73.preheader ], [ %.153, %60 ]
  %.05669 = phi ptr [ %20, %.lr.ph73.preheader ], [ %.157, %60 ]
  %35 = getelementptr inbounds nuw i8, ptr %20, i64 %indvars.iv77
  %36 = load i8, ptr %35, align 1
  %37 = icmp eq i8 %36, 10
  br i1 %37, label %38, label %60

38:                                               ; preds = %.lr.ph73
  %39 = ptrtoint ptr %35 to i64
  %40 = ptrtoint ptr %.05669 to i64
  %41 = sub i64 %39, %40
  %42 = trunc i64 %41 to i32
  %43 = shl i64 %41, 32
  %sext63 = add i64 %43, 4294967296
  %44 = ashr exact i64 %sext63, 32
  %45 = tail call ptr @pg_malloc(i64 noundef %44) #17
  %46 = ashr exact i64 %43, 32
  tail call void @llvm.memcpy.p0.p0.i64(ptr align 1 %45, ptr align 1 %.05669, i64 %46, i1 false)
  %47 = icmp sgt i32 %42, 0
  br i1 %47, label %48, label %55

48:                                               ; preds = %38
  %49 = add i64 %41, 4294967295
  %50 = and i64 %49, 4294967295
  %51 = getelementptr inbounds nuw i8, ptr %45, i64 %50
  %52 = load i8, ptr %51, align 1
  %53 = icmp eq i8 %52, 13
  %54 = sext i1 %53 to i64
  %spec.select66 = add i64 %41, %54
  %.pre = shl i64 %spec.select66, 32
  %.pre82 = ashr exact i64 %.pre, 32
  br label %55

55:                                               ; preds = %48, %38
  %.pre-phi = phi i64 [ %.pre82, %48 ], [ %46, %38 ]
  %56 = getelementptr inbounds i8, ptr %45, i64 %.pre-phi
  store i8 0, ptr %56, align 1
  %57 = add i32 %.05271, 1
  %58 = sext i32 %.05271 to i64
  %59 = getelementptr inbounds ptr, ptr %34, i64 %58
  store ptr %45, ptr %59, align 8
  %gep = getelementptr inbounds nuw i8, ptr %invariant.gep, i64 %indvars.iv77
  br label %60

60:                                               ; preds = %.lr.ph73, %55
  %.157 = phi ptr [ %gep, %55 ], [ %.05669, %.lr.ph73 ]
  %.153 = phi i32 [ %57, %55 ], [ %.05271, %.lr.ph73 ]
  %indvars.iv.next78 = add nuw nsw i64 %indvars.iv77, 1
  %exitcond81.not = icmp eq i64 %indvars.iv.next78, %wide.trip.count80
  br i1 %exitcond81.not, label %._crit_edge74.loopexit, label %.lr.ph73, !llvm.loop !13

._crit_edge74.loopexit:                           ; preds = %60
  %61 = sext i32 %.153 to i64
  br label %._crit_edge74

._crit_edge74:                                    ; preds = %._crit_edge74.loopexit, %._crit_edge
  %.052.lcssa = phi i64 [ 0, %._crit_edge ], [ %61, %._crit_edge74.loopexit ]
  %62 = getelementptr inbounds ptr, ptr %34, i64 %.052.lcssa
  store ptr null, ptr %62, align 8
  tail call void @free(ptr noundef %20) #17
  br label %63

63:                                               ; preds = %2, %._crit_edge74, %26, %15, %9
  %.0 = phi ptr [ null, %9 ], [ %17, %15 ], [ null, %26 ], [ %34, %._crit_edge74 ], [ null, %2 ]
  call void @llvm.lifetime.end.p0(i64 144, ptr nonnull %3) #17
  ret ptr %.0
}